Certificate:
    Data:
        Version: 3 (0x2)
        Serial Number: 2 (0x2)
    Signature Algorithm: sha1WithRSAEncryption
        Issuer: DC=org, DC=simple, O=Simple Inc, OU=Simple Root CA, CN=Simple Root CA
        Validity
            Not Before: Dec  8 19:20:16 2018 GMT
            Not After : Dec  7 19:20:16 2028 GMT
        Subject: DC=org, DC=simple, O=Simple Inc, OU=Simple Signing CA, CN=Simple Signing CA
        Subject Public Key Info:
            Public Key Algorithm: rsaEncryption
                Public-Key: (2048 bit)
                Modulus:
                    00:a8:68:6c:b8:cb:c9:61:f6:fe:6f:f3:a5:6c:f3:
                    c9:19:e9:9c:fc:2f:a0:b0:a4:15:c5:1c:5f:1d:a9:
                    aa:4b:4f:72:be:c9:2b:57:10:71:36:dc:09:1a:e3:
                    3f:ea:cd:38:e8:15:59:85:ee:5b:78:14:f3:a0:52:
                    a0:11:f3:98:09:b9:c4:9e:50:5e:d4:62:85:08:7b:
                    d4:f5:36:3f:4a:e3:ed:2e:37:ea:4a:48:73:0c:3c:
                    bd:2b:c8:45:00:33:e7:c7:d2:41:74:a6:e1:62:4c:
                    60:44:d6:fd:a5:e2:be:28:46:22:24:37:1f:58:36:
                    a6:45:06:03:f9:e8:a3:d6:e4:2c:21:8c:d2:cc:46:
                    58:b4:5c:61:f9:1a:7d:e1:d8:82:b7:84:0c:71:6e:
                    bd:ab:f5:2c:2a:bc:20:87:5d:5c:50:65:a5:f8:7c:
                    8f:4f:bc:f0:62:bc:23:ba:78:5d:71:df:e5:9f:af:
                    3f:77:ed:ab:8d:18:b0:1b:b9:ff:0e:b7:03:7c:07:
                    9a:a1:6b:f0:91:7c:f0:2c:75:43:56:8b:97:2f:38:
                    ea:69:37:63:18:df:26:5e:77:df:f0:a2:d2:c1:39:
                    85:cb:2e:6e:85:47:79:6f:41:01:7e:71:8d:27:c5:
                    d2:bf:d8:30:c8:01:40:e6:a7:78:3a:9a:90:c3:a2:
                    aa:3f
                Exponent: 65537 (0x10001)
        X509v3 extensions:
            X509v3 Key Usage: critical
                Certificate Sign, CRL Sign
            X509v3 Basic Constraints: critical
                CA:TRUE, pathlen:0
            X509v3 Subject Key Identifier: 
                E6:8C:95:96:7D:43:20:BA:34:98:97:5D:83:E4:18:1A:35:3B:EB:43
            X509v3 Authority Key Identifier: 
                keyid:CB:D5:20:A6:AE:4D:A7:93:26:8F:4A:B0:FB:05:AE:2A:C4:E3:7A:6C

    Signature Algorithm: sha1WithRSAEncryption
         6a:0a:78:b2:ce:d2:8c:51:2c:2a:b5:07:a4:58:e5:e4:28:77:
         c3:74:8c:e4:d4:7c:5c:38:5c:1e:90:06:89:2f:08:3f:c9:29:
         c2:40:86:58:ee:bb:40:b3:fb:32:17:1e:72:3d:b8:89:3a:92:
         cc:4e:64:4d:dd:3a:a2:92:b9:6c:39:ab:d7:15:38:a5:55:1d:
         9c:b2:d7:10:9f:ed:74:15:6a:66:d1:95:b6:49:5c:a9:34:0a:
         d3:6f:bd:bd:57:6a:b2:45:32:2f:56:40:0f:30:37:06:c2:60:
         05:ec:cf:4d:da:3a:fa:fe:1b:d7:68:cd:d3:08:37:64:83:3f:
         8f:5e:92:e1:22:55:68:43:9a:e0:63:74:74:a3:97:52:c4:2d:
         0f:69:ad:06:23:74:9e:5e:2f:49:8f:6d:9f:a5:03:f4:89:8c:
         f5:9f:73:63:92:36:ee:6e:30:7c:26:c3:fc:35:2d:7e:d8:05:
         35:bc:f6:82:c1:a6:d9:9d:6a:e5:65:a2:d8:5c:ee:8f:c0:e1:
         24:b8:de:0c:dd:91:dd:02:21:db:38:ec:ae:a0:dd:4a:40:9e:
         43:af:b4:af:fe:ca:17:d3:63:a2:5b:91:a2:5a:e2:71:72:4d:
         11:63:a4:94:10:95:09:61:ed:59:a5:c0:a1:6b:89:f3:a8:86:
         67:06:b8:04
-----BEGIN CERTIFICATE-----
MIIDzzCCAregAwIBAgIBAjANBgkqhkiG9w0BAQUFADB0MRMwEQYKCZImiZPyLGQB
GRYDb3JnMRYwFAYKCZImiZPyLGQBGRYGc2ltcGxlMRMwEQYDVQQKDApTaW1wbGUg
SW5jMRcwFQYDVQQLDA5TaW1wbGUgUm9vdCBDQTEXMBUGA1UEAwwOU2ltcGxlIFJv
b3QgQ0EwHhcNMTgxMjA4MTkyMDE2WhcNMjgxMjA3MTkyMDE2WjB6MRMwEQYKCZIm
iZPyLGQBGRYDb3JnMRYwFAYKCZImiZPyLGQBGRYGc2ltcGxlMRMwEQYDVQQKDApT
aW1wbGUgSW5jMRowGAYDVQQLDBFTaW1wbGUgU2lnbmluZyBDQTEaMBgGA1UEAwwR
U2ltcGxlIFNpZ25pbmcgQ0EwggEiMA0GCSqGSIb3DQEBAQUAA4IBDwAwggEKAoIB
AQCoaGy4y8lh9v5v86Vs88kZ6Zz8L6CwpBXFHF8dqapLT3K+yStXEHE23Aka4z/q
zTjoFVmF7lt4FPOgUqAR85gJucSeUF7UYoUIe9T1Nj9K4+0uN+pKSHMMPL0ryEUA
M+fH0kF0puFiTGBE1v2l4r4oRiIkNx9YNqZFBgP56KPW5CwhjNLMRli0XGH5Gn3h
2IK3hAxxbr2r9SwqvCCHXVxQZaX4fI9PvPBivCO6eF1x3+Wfrz937auNGLAbuf8O
twN8B5qha/CRfPAsdUNWi5cvOOppN2MY3yZed9/wotLBOYXLLm6FR3lvQQF+cY0n
xdK/2DDIAUDmp3g6mpDDoqo/AgMBAAGjZjBkMA4GA1UdDwEB/wQEAwIBBjASBgNV
HRMBAf8ECDAGAQH/AgEAMB0GA1UdDgQWBBTmjJWWfUMgujSYl12D5BgaNTvrQzAf
BgNVHSMEGDAWgBTL1SCmrk2nkyaPSrD7Ba4qxON6bDANBgkqhkiG9w0BAQUFAAOC
AQEAagp4ss7SjFEsKrUHpFjl5Ch3w3SM5NR8XDhcHpAGiS8IP8kpwkCGWO67QLP7
Mhcecj24iTqSzE5kTd06opK5bDmr1xU4pVUdnLLXEJ/tdBVqZtGVtklcqTQK02+9
vVdqskUyL1ZADzA3BsJgBezPTdo6+v4b12jN0wg3ZIM/j16S4SJVaEOa4GN0dKOX
UsQtD2mtBiN0nl4vSY9tn6UD9ImM9Z9zY5I27m4wfCbD/DUtftgFNbz2gsGm2Z1q
5WWi2Fzuj8DhJLjeDN2R3QIh2zjsrqDdSkCeQ6+0r/7KF9NjoluRolricXJNEWOk
lBCVCWHtWaXAoWuJ86iGZwa4BA==
-----END CERTIFICATE-----
Certificate:
    Data:
        Version: 3 (0x2)
        Serial Number: 1 (0x1)
    Signature Algorithm: sha1WithRSAEncryption
        Issuer: DC=org, DC=simple, O=Simple Inc, OU=Simple Root CA, CN=Simple Root CA
        Validity
            Not Before: Dec  8 19:14:42 2018 GMT
            Not After : Dec  7 19:14:42 2028 GMT
        Subject: DC=org, DC=simple, O=Simple Inc, OU=Simple Root CA, CN=Simple Root CA
        Subject Public Key Info:
            Public Key Algorithm: rsaEncryption
                Public-Key: (2048 bit)
                Modulus:
                    00:f6:0b:61:59:ea:c6:e0:b1:fb:33:3c:e8:6e:5e:
                    95:d5:ba:1a:ea:bc:10:b6:c8:f1:49:e4:35:86:d9:
                    0c:5c:27:db:71:2f:80:6c:8b:18:31:92:af:f4:f7:
                    e2:6a:aa:7f:9e:ca:ec:1f:1c:77:be:cd:26:bf:59:
                    f0:a4:f9:ef:01:c9:20:d6:e8:7d:04:ed:73:24:1f:
                    77:9e:3b:5b:40:81:41:36:34:40:50:3e:12:af:f5:
                    af:98:1d:f3:63:d8:6f:41:f1:43:17:f6:dc:07:e7:
                    52:53:f8:56:79:6f:96:93:8c:01:e9:2c:08:37:9e:
                    0c:ea:79:37:76:03:c5:22:09:62:85:7d:e4:01:2f:
                    77:2a:b8:1f:0f:92:e6:46:50:ae:87:10:f9:15:c0:
                    93:1e:33:ea:f1:12:c2:90:c6:25:74:81:2a:a1:3f:
                    53:54:95:a4:04:7f:e4:cd:67:72:52:61:bd:df:57:
                    03:2a:b3:bd:63:76:fb:64:61:24:e6:cc:c5:3f:e9:
                    f3:94:ee:41:9d:e8:97:7b:e3:bc:66:cd:97:d9:ea:
                    f4:23:7d:2d:69:ff:53:e2:cd:ed:22:5e:be:51:a1:
                    73:97:ac:7e:8e:d3:80:9f:53:ff:fe:a4:00:09:45:
                    97:28:00:4e:87:af:d9:1b:5a:f4:c9:9d:ad:37:98:
                    03:a9
                Exponent: 65537 (0x10001)
        X509v3 extensions:
            X509v3 Key Usage: critical
                Certificate Sign, CRL Sign
            X509v3 Basic Constraints: critical
                CA:TRUE
            X509v3 Subject Key Identifier: 
                CB:D5:20:A6:AE:4D:A7:93:26:8F:4A:B0:FB:05:AE:2A:C4:E3:7A:6C
            X509v3 Authority Key Identifier: 
                keyid:CB:D5:20:A6:AE:4D:A7:93:26:8F:4A:B0:FB:05:AE:2A:C4:E3:7A:6C

    Signature Algorithm: sha1WithRSAEncryption
         87:ed:81:1b:ec:78:6f:bf:48:0b:d7:d5:b1:0b:d7:36:47:12:
         c2:fb:cd:69:fb:d0:99:ff:94:e2:36:2c:16:22:ec:d7:d9:2c:
         50:60:99:5a:65:0e:d3:b7:b8:4d:3b:7a:2d:69:6f:c9:da:83:
         aa:e4:a6:a5:a6:30:9b:06:3d:44:05:01:1d:9f:b9:dd:f3:37:
         a0:85:f7:65:a6:8a:b6:ec:89:f1:5b:2a:2d:fe:95:b6:37:67:
         ee:a5:ec:22:ad:53:5e:cf:f9:c9:d8:36:77:b8:bc:85:d8:74:
         64:b1:5b:96:e2:57:81:68:ad:8a:9f:74:92:e4:27:e9:bd:d9:
         4c:c4:8f:26:46:c9:2d:4b:d7:cb:4e:76:04:00:96:ef:38:87:
         17:26:db:69:84:d2:43:72:58:d0:a5:88:ef:52:7c:1f:f7:e0:
         d7:2b:6b:a1:00:1b:cb:cd:ad:27:13:ea:f0:1b:44:f6:63:44:
         7f:63:ca:a7:b4:0e:6a:a5:60:d0:c7:88:95:9c:4a:c6:8d:be:
         5f:f7:e9:58:a4:bd:a7:8a:2b:a3:f5:de:b0:aa:64:9e:9b:2f:
         36:fc:37:97:24:05:8f:ea:02:c5:bb:79:be:d2:2a:d9:3b:ec:
         41:4a:df:a4:a6:9f:94:a3:db:6b:3e:c3:d9:3c:a6:99:98:e4:
         04:c2:28:37
-----BEGIN CERTIFICATE-----
MIIDxjCCAq6gAwIBAgIBATANBgkqhkiG9w0BAQUFADB0MRMwEQYKCZImiZPyLGQB
GRYDb3JnMRYwFAYKCZImiZPyLGQBGRYGc2ltcGxlMRMwEQYDVQQKDApTaW1wbGUg
SW5jMRcwFQYDVQQLDA5TaW1wbGUgUm9vdCBDQTEXMBUGA1UEAwwOU2ltcGxlIFJv
b3QgQ0EwHhcNMTgxMjA4MTkxNDQyWhcNMjgxMjA3MTkxNDQyWjB0MRMwEQYKCZIm
iZPyLGQBGRYDb3JnMRYwFAYKCZImiZPyLGQBGRYGc2ltcGxlMRMwEQYDVQQKDApT
aW1wbGUgSW5jMRcwFQYDVQQLDA5TaW1wbGUgUm9vdCBDQTEXMBUGA1UEAwwOU2lt
cGxlIFJvb3QgQ0EwggEiMA0GCSqGSIb3DQEBAQUAA4IBDwAwggEKAoIBAQD2C2FZ
6sbgsfszPOhuXpXVuhrqvBC2yPFJ5DWG2QxcJ9txL4Bsixgxkq/09+Jqqn+eyuwf
HHe+zSa/WfCk+e8BySDW6H0E7XMkH3eeO1tAgUE2NEBQPhKv9a+YHfNj2G9B8UMX
9twH51JT+FZ5b5aTjAHpLAg3ngzqeTd2A8UiCWKFfeQBL3cquB8PkuZGUK6HEPkV
wJMeM+rxEsKQxiV0gSqhP1NUlaQEf+TNZ3JSYb3fVwMqs71jdvtkYSTmzMU/6fOU
7kGd6Jd747xmzZfZ6vQjfS1p/1Pize0iXr5RoXOXrH6O04CfU//+pAAJRZcoAE6H
r9kbWvTJna03mAOpAgMBAAGjYzBhMA4GA1UdDwEB/wQEAwIBBjAPBgNVHRMBAf8E
BTADAQH/MB0GA1UdDgQWBBTL1SCmrk2nkyaPSrD7Ba4qxON6bDAfBgNVHSMEGDAW
gBTL1SCmrk2nkyaPSrD7Ba4qxON6bDANBgkqhkiG9w0BAQUFAAOCAQEAh+2BG+x4
b79IC9fVsQvXNkcSwvvNafvQmf+U4jYsFiLs19ksUGCZWmUO07e4TTt6LWlvydqD
quSmpaYwmwY9RAUBHZ+53fM3oIX3ZaaKtuyJ8VsqLf6Vtjdn7qXsIq1TXs/5ydg2
d7i8hdh0ZLFbluJXgWitip90kuQn6b3ZTMSPJkbJLUvXy052BACW7ziHFybbaYTS
Q3JY0KWI71J8H/fg1ytroQAby82tJxPq8BtE9mNEf2PKp7QOaqVg0MeIlZxKxo2+
X/fpWKS9p4oro/XesKpknpsvNvw3lyQFj+oCxbt5vtIq2TvsQUrfpKaflKPbaz7D
2TymmZjkBMIoNw==
-----END CERTIFICATE-----
