Certificate:
    Data:
        Version: 3 (0x2)
        Serial Number: 1 (0x1)
    Signature Algorithm: sha1WithRSAEncryption
        Issuer: DC=org, DC=simple, O=Simple Inc, OU=Simple Root CA, CN=Simple Root CA
        Validity
            Not Before: Dec  8 19:14:42 2018 GMT
            Not After : Dec  7 19:14:42 2028 GMT
        Subject: DC=org, DC=simple, O=Simple Inc, OU=Simple Root CA, CN=Simple Root CA
        Subject Public Key Info:
            Public Key Algorithm: rsaEncryption
                Public-Key: (2048 bit)
                Modulus:
                    00:f6:0b:61:59:ea:c6:e0:b1:fb:33:3c:e8:6e:5e:
                    95:d5:ba:1a:ea:bc:10:b6:c8:f1:49:e4:35:86:d9:
                    0c:5c:27:db:71:2f:80:6c:8b:18:31:92:af:f4:f7:
                    e2:6a:aa:7f:9e:ca:ec:1f:1c:77:be:cd:26:bf:59:
                    f0:a4:f9:ef:01:c9:20:d6:e8:7d:04:ed:73:24:1f:
                    77:9e:3b:5b:40:81:41:36:34:40:50:3e:12:af:f5:
                    af:98:1d:f3:63:d8:6f:41:f1:43:17:f6:dc:07:e7:
                    52:53:f8:56:79:6f:96:93:8c:01:e9:2c:08:37:9e:
                    0c:ea:79:37:76:03:c5:22:09:62:85:7d:e4:01:2f:
                    77:2a:b8:1f:0f:92:e6:46:50:ae:87:10:f9:15:c0:
                    93:1e:33:ea:f1:12:c2:90:c6:25:74:81:2a:a1:3f:
                    53:54:95:a4:04:7f:e4:cd:67:72:52:61:bd:df:57:
                    03:2a:b3:bd:63:76:fb:64:61:24:e6:cc:c5:3f:e9:
                    f3:94:ee:41:9d:e8:97:7b:e3:bc:66:cd:97:d9:ea:
                    f4:23:7d:2d:69:ff:53:e2:cd:ed:22:5e:be:51:a1:
                    73:97:ac:7e:8e:d3:80:9f:53:ff:fe:a4:00:09:45:
                    97:28:00:4e:87:af:d9:1b:5a:f4:c9:9d:ad:37:98:
                    03:a9
                Exponent: 65537 (0x10001)
        X509v3 extensions:
            X509v3 Key Usage: critical
                Certificate Sign, CRL Sign
            X509v3 Basic Constraints: critical
                CA:TRUE
            X509v3 Subject Key Identifier: 
                CB:D5:20:A6:AE:4D:A7:93:26:8F:4A:B0:FB:05:AE:2A:C4:E3:7A:6C
            X509v3 Authority Key Identifier: 
                keyid:CB:D5:20:A6:AE:4D:A7:93:26:8F:4A:B0:FB:05:AE:2A:C4:E3:7A:6C

    Signature Algorithm: sha1WithRSAEncryption
         87:ed:81:1b:ec:78:6f:bf:48:0b:d7:d5:b1:0b:d7:36:47:12:
         c2:fb:cd:69:fb:d0:99:ff:94:e2:36:2c:16:22:ec:d7:d9:2c:
         50:60:99:5a:65:0e:d3:b7:b8:4d:3b:7a:2d:69:6f:c9:da:83:
         aa:e4:a6:a5:a6:30:9b:06:3d:44:05:01:1d:9f:b9:dd:f3:37:
         a0:85:f7:65:a6:8a:b6:ec:89:f1:5b:2a:2d:fe:95:b6:37:67:
         ee:a5:ec:22:ad:53:5e:cf:f9:c9:d8:36:77:b8:bc:85:d8:74:
         64:b1:5b:96:e2:57:81:68:ad:8a:9f:74:92:e4:27:e9:bd:d9:
         4c:c4:8f:26:46:c9:2d:4b:d7:cb:4e:76:04:00:96:ef:38:87:
         17:26:db:69:84:d2:43:72:58:d0:a5:88:ef:52:7c:1f:f7:e0:
         d7:2b:6b:a1:00:1b:cb:cd:ad:27:13:ea:f0:1b:44:f6:63:44:
         7f:63:ca:a7:b4:0e:6a:a5:60:d0:c7:88:95:9c:4a:c6:8d:be:
         5f:f7:e9:58:a4:bd:a7:8a:2b:a3:f5:de:b0:aa:64:9e:9b:2f:
         36:fc:37:97:24:05:8f:ea:02:c5:bb:79:be:d2:2a:d9:3b:ec:
         41:4a:df:a4:a6:9f:94:a3:db:6b:3e:c3:d9:3c:a6:99:98:e4:
         04:c2:28:37
-----BEGIN CERTIFICATE-----
MIIDxjCCAq6gAwIBAgIBATANBgkqhkiG9w0BAQUFADB0MRMwEQYKCZImiZPyLGQB
GRYDb3JnMRYwFAYKCZImiZPyLGQBGRYGc2ltcGxlMRMwEQYDVQQKDApTaW1wbGUg
SW5jMRcwFQYDVQQLDA5TaW1wbGUgUm9vdCBDQTEXMBUGA1UEAwwOU2ltcGxlIFJv
b3QgQ0EwHhcNMTgxMjA4MTkxNDQyWhcNMjgxMjA3MTkxNDQyWjB0MRMwEQYKCZIm
iZPyLGQBGRYDb3JnMRYwFAYKCZImiZPyLGQBGRYGc2ltcGxlMRMwEQYDVQQKDApT
aW1wbGUgSW5jMRcwFQYDVQQLDA5TaW1wbGUgUm9vdCBDQTEXMBUGA1UEAwwOU2lt
cGxlIFJvb3QgQ0EwggEiMA0GCSqGSIb3DQEBAQUAA4IBDwAwggEKAoIBAQD2C2FZ
6sbgsfszPOhuXpXVuhrqvBC2yPFJ5DWG2QxcJ9txL4Bsixgxkq/09+Jqqn+eyuwf
HHe+zSa/WfCk+e8BySDW6H0E7XMkH3eeO1tAgUE2NEBQPhKv9a+YHfNj2G9B8UMX
9twH51JT+FZ5b5aTjAHpLAg3ngzqeTd2A8UiCWKFfeQBL3cquB8PkuZGUK6HEPkV
wJMeM+rxEsKQxiV0gSqhP1NUlaQEf+TNZ3JSYb3fVwMqs71jdvtkYSTmzMU/6fOU
7kGd6Jd747xmzZfZ6vQjfS1p/1Pize0iXr5RoXOXrH6O04CfU//+pAAJRZcoAE6H
r9kbWvTJna03mAOpAgMBAAGjYzBhMA4GA1UdDwEB/wQEAwIBBjAPBgNVHRMBAf8E
BTADAQH/MB0GA1UdDgQWBBTL1SCmrk2nkyaPSrD7Ba4qxON6bDAfBgNVHSMEGDAW
gBTL1SCmrk2nkyaPSrD7Ba4qxON6bDANBgkqhkiG9w0BAQUFAAOCAQEAh+2BG+x4
b79IC9fVsQvXNkcSwvvNafvQmf+U4jYsFiLs19ksUGCZWmUO07e4TTt6LWlvydqD
quSmpaYwmwY9RAUBHZ+53fM3oIX3ZaaKtuyJ8VsqLf6Vtjdn7qXsIq1TXs/5ydg2
d7i8hdh0ZLFbluJXgWitip90kuQn6b3ZTMSPJkbJLUvXy052BACW7ziHFybbaYTS
Q3JY0KWI71J8H/fg1ytroQAby82tJxPq8BtE9mNEf2PKp7QOaqVg0MeIlZxKxo2+
X/fpWKS9p4oro/XesKpknpsvNvw3lyQFj+oCxbt5vtIq2TvsQUrfpKaflKPbaz7D
2TymmZjkBMIoNw==
-----END CERTIFICATE-----
