Certificate:
    Data:
        Version: 3 (0x2)
        Serial Number: 2 (0x2)
    Signature Algorithm: sha1WithRSAEncryption
        Issuer: DC=org, DC=simple, O=Simple Inc, OU=Simple Root CA, CN=Simple Root CA
        Validity
            Not Before: Dec  8 19:20:16 2018 GMT
            Not After : Dec  7 19:20:16 2028 GMT
        Subject: DC=org, DC=simple, O=Simple Inc, OU=Simple Signing CA, CN=Simple Signing CA
        Subject Public Key Info:
            Public Key Algorithm: rsaEncryption
                Public-Key: (2048 bit)
                Modulus:
                    00:a8:68:6c:b8:cb:c9:61:f6:fe:6f:f3:a5:6c:f3:
                    c9:19:e9:9c:fc:2f:a0:b0:a4:15:c5:1c:5f:1d:a9:
                    aa:4b:4f:72:be:c9:2b:57:10:71:36:dc:09:1a:e3:
                    3f:ea:cd:38:e8:15:59:85:ee:5b:78:14:f3:a0:52:
                    a0:11:f3:98:09:b9:c4:9e:50:5e:d4:62:85:08:7b:
                    d4:f5:36:3f:4a:e3:ed:2e:37:ea:4a:48:73:0c:3c:
                    bd:2b:c8:45:00:33:e7:c7:d2:41:74:a6:e1:62:4c:
                    60:44:d6:fd:a5:e2:be:28:46:22:24:37:1f:58:36:
                    a6:45:06:03:f9:e8:a3:d6:e4:2c:21:8c:d2:cc:46:
                    58:b4:5c:61:f9:1a:7d:e1:d8:82:b7:84:0c:71:6e:
                    bd:ab:f5:2c:2a:bc:20:87:5d:5c:50:65:a5:f8:7c:
                    8f:4f:bc:f0:62:bc:23:ba:78:5d:71:df:e5:9f:af:
                    3f:77:ed:ab:8d:18:b0:1b:b9:ff:0e:b7:03:7c:07:
                    9a:a1:6b:f0:91:7c:f0:2c:75:43:56:8b:97:2f:38:
                    ea:69:37:63:18:df:26:5e:77:df:f0:a2:d2:c1:39:
                    85:cb:2e:6e:85:47:79:6f:41:01:7e:71:8d:27:c5:
                    d2:bf:d8:30:c8:01:40:e6:a7:78:3a:9a:90:c3:a2:
                    aa:3f
                Exponent: 65537 (0x10001)
        X509v3 extensions:
            X509v3 Key Usage: critical
                Certificate Sign, CRL Sign
            X509v3 Basic Constraints: critical
                CA:TRUE, pathlen:0
            X509v3 Subject Key Identifier: 
                E6:8C:95:96:7D:43:20:BA:34:98:97:5D:83:E4:18:1A:35:3B:EB:43
            X509v3 Authority Key Identifier: 
                keyid:CB:D5:20:A6:AE:4D:A7:93:26:8F:4A:B0:FB:05:AE:2A:C4:E3:7A:6C

    Signature Algorithm: sha1WithRSAEncryption
         6a:0a:78:b2:ce:d2:8c:51:2c:2a:b5:07:a4:58:e5:e4:28:77:
         c3:74:8c:e4:d4:7c:5c:38:5c:1e:90:06:89:2f:08:3f:c9:29:
         c2:40:86:58:ee:bb:40:b3:fb:32:17:1e:72:3d:b8:89:3a:92:
         cc:4e:64:4d:dd:3a:a2:92:b9:6c:39:ab:d7:15:38:a5:55:1d:
         9c:b2:d7:10:9f:ed:74:15:6a:66:d1:95:b6:49:5c:a9:34:0a:
         d3:6f:bd:bd:57:6a:b2:45:32:2f:56:40:0f:30:37:06:c2:60:
         05:ec:cf:4d:da:3a:fa:fe:1b:d7:68:cd:d3:08:37:64:83:3f:
         8f:5e:92:e1:22:55:68:43:9a:e0:63:74:74:a3:97:52:c4:2d:
         0f:69:ad:06:23:74:9e:5e:2f:49:8f:6d:9f:a5:03:f4:89:8c:
         f5:9f:73:63:92:36:ee:6e:30:7c:26:c3:fc:35:2d:7e:d8:05:
         35:bc:f6:82:c1:a6:d9:9d:6a:e5:65:a2:d8:5c:ee:8f:c0:e1:
         24:b8:de:0c:dd:91:dd:02:21:db:38:ec:ae:a0:dd:4a:40:9e:
         43:af:b4:af:fe:ca:17:d3:63:a2:5b:91:a2:5a:e2:71:72:4d:
         11:63:a4:94:10:95:09:61:ed:59:a5:c0:a1:6b:89:f3:a8:86:
         67:06:b8:04
-----BEGIN CERTIFICATE-----
MIIDzzCCAregAwIBAgIBAjANBgkqhkiG9w0BAQUFADB0MRMwEQYKCZImiZPyLGQB
GRYDb3JnMRYwFAYKCZImiZPyLGQBGRYGc2ltcGxlMRMwEQYDVQQKDApTaW1wbGUg
SW5jMRcwFQYDVQQLDA5TaW1wbGUgUm9vdCBDQTEXMBUGA1UEAwwOU2ltcGxlIFJv
b3QgQ0EwHhcNMTgxMjA4MTkyMDE2WhcNMjgxMjA3MTkyMDE2WjB6MRMwEQYKCZIm
iZPyLGQBGRYDb3JnMRYwFAYKCZImiZPyLGQBGRYGc2ltcGxlMRMwEQYDVQQKDApT
aW1wbGUgSW5jMRowGAYDVQQLDBFTaW1wbGUgU2lnbmluZyBDQTEaMBgGA1UEAwwR
U2ltcGxlIFNpZ25pbmcgQ0EwggEiMA0GCSqGSIb3DQEBAQUAA4IBDwAwggEKAoIB
AQCoaGy4y8lh9v5v86Vs88kZ6Zz8L6CwpBXFHF8dqapLT3K+yStXEHE23Aka4z/q
zTjoFVmF7lt4FPOgUqAR85gJucSeUF7UYoUIe9T1Nj9K4+0uN+pKSHMMPL0ryEUA
M+fH0kF0puFiTGBE1v2l4r4oRiIkNx9YNqZFBgP56KPW5CwhjNLMRli0XGH5Gn3h
2IK3hAxxbr2r9SwqvCCHXVxQZaX4fI9PvPBivCO6eF1x3+Wfrz937auNGLAbuf8O
twN8B5qha/CRfPAsdUNWi5cvOOppN2MY3yZed9/wotLBOYXLLm6FR3lvQQF+cY0n
xdK/2DDIAUDmp3g6mpDDoqo/AgMBAAGjZjBkMA4GA1UdDwEB/wQEAwIBBjASBgNV
HRMBAf8ECDAGAQH/AgEAMB0GA1UdDgQWBBTmjJWWfUMgujSYl12D5BgaNTvrQzAf
BgNVHSMEGDAWgBTL1SCmrk2nkyaPSrD7Ba4qxON6bDANBgkqhkiG9w0BAQUFAAOC
AQEAagp4ss7SjFEsKrUHpFjl5Ch3w3SM5NR8XDhcHpAGiS8IP8kpwkCGWO67QLP7
Mhcecj24iTqSzE5kTd06opK5bDmr1xU4pVUdnLLXEJ/tdBVqZtGVtklcqTQK02+9
vVdqskUyL1ZADzA3BsJgBezPTdo6+v4b12jN0wg3ZIM/j16S4SJVaEOa4GN0dKOX
UsQtD2mtBiN0nl4vSY9tn6UD9ImM9Z9zY5I27m4wfCbD/DUtftgFNbz2gsGm2Z1q
5WWi2Fzuj8DhJLjeDN2R3QIh2zjsrqDdSkCeQ6+0r/7KF9NjoluRolricXJNEWOk
lBCVCWHtWaXAoWuJ86iGZwa4BA==
-----END CERTIFICATE-----
