Certificate:
    Data:
        Version: 3 (0x2)
        Serial Number: 1 (0x1)
    Signature Algorithm: sha1WithRSAEncryption
        Issuer: DC=org, DC=simple, O=Simple Inc, OU=Simple Signing CA, CN=Simple Signing CA
        Validity
            Not Before: Dec  8 19:28:36 2018 GMT
            Not After : Dec  7 19:28:36 2020 GMT
        Subject: DC=org, DC=simple, O=Simple Inc, CN=Fred Flinstone
        Subject Public Key Info:
            Public Key Algorithm: rsaEncryption
                Public-Key: (2048 bit)
                Modulus:
                    00:be:cf:ed:f9:38:9a:fb:65:75:ee:3a:e8:67:c6:
                    96:6d:47:3e:32:04:d5:df:f8:62:2c:83:c6:b0:cd:
                    2a:bd:50:0a:5b:e0:44:af:31:79:bf:eb:8f:27:18:
                    6b:b5:cf:6d:c4:9b:d2:77:37:41:97:2f:15:75:42:
                    0a:19:26:23:a9:4a:be:d8:ca:fd:77:7b:1b:27:13:
                    7f:bd:14:0f:50:38:02:d6:63:9b:a9:90:e4:0c:90:
                    f1:24:e9:61:77:01:65:a6:3c:09:39:db:3d:89:ce:
                    1c:89:2b:cd:57:68:60:d4:31:e1:04:be:43:5d:8a:
                    d2:60:8d:f8:1c:98:e8:aa:79:ac:87:df:a5:bf:45:
                    03:e1:47:5f:34:92:10:9c:3e:c9:da:d9:78:e1:03:
                    f6:bf:5b:b4:e6:c9:ad:14:55:c6:ac:3c:4a:a1:b7:
                    ee:d8:6a:d7:41:f0:a7:0a:41:1c:65:67:48:08:67:
                    6a:12:c9:33:fd:b9:85:3d:85:76:32:f8:a9:35:1c:
                    78:79:1d:ca:1b:c9:ec:a0:d2:98:c9:a1:49:bf:56:
                    83:23:bb:f8:ec:71:c2:fc:a1:f8:b8:b3:e1:e3:73:
                    76:de:5e:6e:eb:42:df:63:20:93:60:15:b8:95:5c:
                    54:f0:34:47:c4:c6:a7:9f:e3:e2:39:c1:67:87:81:
                    5f:87
                Exponent: 65537 (0x10001)
        X509v3 extensions:
            X509v3 Key Usage: critical
                Digital Signature, Key Encipherment
            X509v3 Basic Constraints: 
                CA:FALSE
            X509v3 Extended Key Usage: 
                E-mail Protection, TLS Web Client Authentication
            X509v3 Subject Key Identifier: 
                2F:F3:04:DD:26:19:19:98:B0:EB:FE:31:1B:0A:3B:24:FA:58:40:0F
            X509v3 Authority Key Identifier: 
                keyid:E6:8C:95:96:7D:43:20:BA:34:98:97:5D:83:E4:18:1A:35:3B:EB:43

            X509v3 Subject Alternative Name: 
                email:fred@simple.org
    Signature Algorithm: sha1WithRSAEncryption
         82:c3:4b:8e:e7:3c:20:ef:df:01:8a:6a:a1:ae:ad:10:77:e1:
         26:cd:fd:40:f1:9a:5e:f0:f7:12:aa:e5:f1:62:b8:31:35:9f:
         48:6f:c4:e6:df:0c:cc:06:19:d6:b4:da:1c:39:6b:b1:29:4b:
         a4:f7:f1:72:ec:c9:c8:27:91:40:4f:12:e4:31:f6:04:bc:56:
         98:8e:f1:08:fb:88:e1:83:95:64:a9:dd:a7:32:07:13:b2:c8:
         ea:02:90:ae:f5:fd:29:35:9b:29:b2:96:20:f4:b9:8d:60:4e:
         22:7e:5f:26:c4:77:72:08:7c:8b:28:01:b6:4f:dc:2d:2b:60:
         3c:46:b7:e0:30:e9:e9:69:be:71:e5:e4:a5:e2:42:9d:80:9e:
         48:8a:65:e3:e2:09:aa:c7:ab:a9:99:f9:da:d4:08:e3:dc:52:
         a7:fa:a8:a6:19:bd:46:84:5f:f0:a9:74:c0:27:81:c0:6b:5f:
         46:eb:2a:4b:c5:57:08:5b:27:da:19:3b:94:41:76:ab:8e:a5:
         b1:4e:d9:47:13:6d:f3:00:7f:4e:bb:14:bd:c1:6a:62:d6:ca:
         d0:79:8a:98:68:93:7d:ff:a9:1d:b0:5e:44:d0:c3:05:59:08:
         d8:a3:f5:79:73:3c:ee:e5:62:96:2f:b5:c5:1c:25:7b:0e:5d:
         7f:21:58:68
-----BEGIN CERTIFICATE-----
MIID6jCCAtKgAwIBAgIBATANBgkqhkiG9w0BAQUFADB6MRMwEQYKCZImiZPyLGQB
GRYDb3JnMRYwFAYKCZImiZPyLGQBGRYGc2ltcGxlMRMwEQYDVQQKDApTaW1wbGUg
SW5jMRowGAYDVQQLDBFTaW1wbGUgU2lnbmluZyBDQTEaMBgGA1UEAwwRU2ltcGxl
IFNpZ25pbmcgQ0EwHhcNMTgxMjA4MTkyODM2WhcNMjAxMjA3MTkyODM2WjBbMRMw
EQYKCZImiZPyLGQBGRYDb3JnMRYwFAYKCZImiZPyLGQBGRYGc2ltcGxlMRMwEQYD
VQQKDApTaW1wbGUgSW5jMRcwFQYDVQQDDA5GcmVkIEZsaW5zdG9uZTCCASIwDQYJ
KoZIhvcNAQEBBQADggEPADCCAQoCggEBAL7P7fk4mvtlde466GfGlm1HPjIE1d/4
YiyDxrDNKr1QClvgRK8xeb/rjycYa7XPbcSb0nc3QZcvFXVCChkmI6lKvtjK/Xd7
GycTf70UD1A4AtZjm6mQ5AyQ8STpYXcBZaY8CTnbPYnOHIkrzVdoYNQx4QS+Q12K
0mCN+ByY6Kp5rIffpb9FA+FHXzSSEJw+ydrZeOED9r9btObJrRRVxqw8SqG37thq
10HwpwpBHGVnSAhnahLJM/25hT2FdjL4qTUceHkdyhvJ7KDSmMmhSb9WgyO7+Oxx
wvyh+Liz4eNzdt5ebutC32Mgk2AVuJVcVPA0R8TGp5/j4jnBZ4eBX4cCAwEAAaOB
mTCBljAOBgNVHQ8BAf8EBAMCBaAwCQYDVR0TBAIwADAdBgNVHSUEFjAUBggrBgEF
BQcDBAYIKwYBBQUHAwIwHQYDVR0OBBYEFC/zBN0mGRmYsOv+MRsKOyT6WEAPMB8G
A1UdIwQYMBaAFOaMlZZ9QyC6NJiXXYPkGBo1O+tDMBoGA1UdEQQTMBGBD2ZyZWRA
c2ltcGxlLm9yZzANBgkqhkiG9w0BAQUFAAOCAQEAgsNLjuc8IO/fAYpqoa6tEHfh
Js39QPGaXvD3Eqrl8WK4MTWfSG/E5t8MzAYZ1rTaHDlrsSlLpPfxcuzJyCeRQE8S
5DH2BLxWmI7xCPuI4YOVZKndpzIHE7LI6gKQrvX9KTWbKbKWIPS5jWBOIn5fJsR3
cgh8iygBtk/cLStgPEa34DDp6Wm+ceXkpeJCnYCeSIpl4+IJqserqZn52tQI49xS
p/qophm9RoRf8Kl0wCeBwGtfRusqS8VXCFsn2hk7lEF2q46lsU7ZRxNt8wB/TrsU
vcFqYtbK0HmKmGiTff+pHbBeRNDDBVkI2KP1eXM87uVili+1xRwlew5dfyFYaA==
-----END CERTIFICATE-----
