Certificate:
    Data:
        Version: 3 (0x2)
        Serial Number: 2 (0x2)
    Signature Algorithm: sha1WithRSAEncryption
        Issuer: DC=org, DC=simple, O=Simple Inc, OU=Simple Signing CA, CN=Simple Signing CA
        Validity
            Not Before: Dec  8 19:33:30 2018 GMT
            Not After : Dec  7 19:33:30 2020 GMT
        Subject: DC=org, DC=simple, O=Simple Inc, CN=www.simple.org
        Subject Public Key Info:
            Public Key Algorithm: rsaEncryption
                Public-Key: (2048 bit)
                Modulus:
                    00:de:70:fb:2a:0f:3b:67:af:12:ca:ad:4d:b6:f5:
                    5c:27:ec:29:ec:1f:94:bb:59:9d:00:e5:2c:14:32:
                    f5:5e:e5:f6:87:f0:04:d4:1a:75:88:9d:16:c3:b4:
                    68:f5:d0:45:54:c5:c7:49:a3:e6:a1:0e:6c:16:27:
                    a7:79:83:10:88:10:45:a9:56:69:3b:f9:1f:d2:de:
                    7c:ca:3b:a3:26:d0:57:20:22:61:db:23:dc:ee:d2:
                    ba:5c:e6:5f:1f:c0:00:db:c5:85:f9:c0:77:a7:7a:
                    d2:a4:a6:17:10:dc:df:07:5a:b4:c4:e9:3a:76:1f:
                    d9:65:d6:44:3b:fd:fe:8b:c6:c1:17:77:4d:28:b3:
                    f0:a0:4d:47:82:16:d8:a9:0f:21:6b:b0:e8:51:69:
                    77:de:6f:4a:e6:0f:6c:47:c9:10:de:fd:78:ff:c2:
                    7a:d7:2e:48:e7:46:97:fe:c0:5b:ad:3b:17:93:20:
                    ee:c0:66:ff:bd:d7:96:ac:8c:07:ea:37:c8:8a:50:
                    df:6d:ab:b9:49:f3:3a:12:76:6b:2e:7a:02:32:de:
                    e6:c1:37:8a:c5:2e:a5:ba:bb:79:dc:33:4f:32:a2:
                    3b:e8:32:2d:69:78:c1:fd:76:ca:a8:f9:ba:68:38:
                    6f:ad:aa:fd:55:a9:fc:e7:20:46:f5:39:fc:59:5f:
                    af:9b
                Exponent: 65537 (0x10001)
        X509v3 extensions:
            X509v3 Key Usage: critical
                Digital Signature, Key Encipherment
            X509v3 Basic Constraints: 
                CA:FALSE
            X509v3 Extended Key Usage: 
                TLS Web Server Authentication, TLS Web Client Authentication
            X509v3 Subject Key Identifier: 
                E9:56:A1:A5:33:41:FA:30:95:32:CE:C2:E1:C3:A0:7B:8D:98:5E:89
            X509v3 Authority Key Identifier: 
                keyid:E6:8C:95:96:7D:43:20:BA:34:98:97:5D:83:E4:18:1A:35:3B:EB:43

            X509v3 Subject Alternative Name: 
                DNS:yourdomain.tld
    Signature Algorithm: sha1WithRSAEncryption
         58:b4:90:da:bd:ab:76:b7:06:72:60:81:64:21:a1:23:f8:8b:
         ac:37:8a:c0:74:ba:fb:46:07:ba:dd:5a:71:ab:a4:38:66:b4:
         b9:72:68:97:da:1e:a2:b9:0a:b0:75:bc:fa:e5:98:5b:bf:0c:
         7d:c4:3b:39:4e:71:5b:d9:15:bc:f1:c4:19:52:29:97:d4:94:
         7c:65:db:cd:e7:38:a3:43:cf:0e:72:dd:4c:95:47:52:6c:17:
         4c:62:7d:53:d1:c2:4f:e9:a0:4d:2c:9e:5f:ca:5b:02:5a:9a:
         cd:b7:25:6e:e5:d9:8f:b9:4d:26:16:a0:5d:5f:46:30:4c:40:
         ab:90:dc:8f:d9:2a:12:e9:36:97:61:2c:e5:26:16:18:ae:45:
         2a:0a:75:52:27:36:39:9f:b2:bf:72:60:b4:60:1d:5e:c8:9f:
         5f:4b:86:80:32:01:ef:9b:ea:54:8e:9e:a2:a6:bb:e4:8d:67:
         13:10:c9:a6:57:03:29:eb:6a:7b:29:ec:c6:08:93:01:89:10:
         e1:9d:d5:99:d9:74:17:bf:b2:ce:cf:42:e7:0f:6a:8b:2f:cd:
         eb:82:52:d4:2c:b7:56:2d:bf:5e:41:ad:05:4a:70:24:ce:cc:
         11:bb:d3:dc:6b:f8:ed:47:29:61:10:95:1b:02:d2:3f:3d:bd:
         56:c2:cc:a8
-----BEGIN CERTIFICATE-----
MIID6TCCAtGgAwIBAgIBAjANBgkqhkiG9w0BAQUFADB6MRMwEQYKCZImiZPyLGQB
GRYDb3JnMRYwFAYKCZImiZPyLGQBGRYGc2ltcGxlMRMwEQYDVQQKDApTaW1wbGUg
SW5jMRowGAYDVQQLDBFTaW1wbGUgU2lnbmluZyBDQTEaMBgGA1UEAwwRU2ltcGxl
IFNpZ25pbmcgQ0EwHhcNMTgxMjA4MTkzMzMwWhcNMjAxMjA3MTkzMzMwWjBbMRMw
EQYKCZImiZPyLGQBGRYDb3JnMRYwFAYKCZImiZPyLGQBGRYGc2ltcGxlMRMwEQYD
VQQKDApTaW1wbGUgSW5jMRcwFQYDVQQDDA53d3cuc2ltcGxlLm9yZzCCASIwDQYJ
KoZIhvcNAQEBBQADggEPADCCAQoCggEBAN5w+yoPO2evEsqtTbb1XCfsKewflLtZ
nQDlLBQy9V7l9ofwBNQadYidFsO0aPXQRVTFx0mj5qEObBYnp3mDEIgQRalWaTv5
H9LefMo7oybQVyAiYdsj3O7SulzmXx/AANvFhfnAd6d60qSmFxDc3wdatMTpOnYf
2WXWRDv9/ovGwRd3TSiz8KBNR4IW2KkPIWuw6FFpd95vSuYPbEfJEN79eP/Cetcu
SOdGl/7AW607F5Mg7sBm/73XlqyMB+o3yIpQ322ruUnzOhJ2ay56AjLe5sE3isUu
pbq7edwzTzKiO+gyLWl4wf12yqj5umg4b62q/VWp/OcgRvU5/Flfr5sCAwEAAaOB
mDCBlTAOBgNVHQ8BAf8EBAMCBaAwCQYDVR0TBAIwADAdBgNVHSUEFjAUBggrBgEF
BQcDAQYIKwYBBQUHAwIwHQYDVR0OBBYEFOlWoaUzQfowlTLOwuHDoHuNmF6JMB8G
A1UdIwQYMBaAFOaMlZZ9QyC6NJiXXYPkGBo1O+tDMBkGA1UdEQQSMBCCDnlvdXJk
b21haW4udGxkMA0GCSqGSIb3DQEBBQUAA4IBAQBYtJDavat2twZyYIFkIaEj+Ius
N4rAdLr7Rge63Vpxq6Q4ZrS5cmiX2h6iuQqwdbz65Zhbvwx9xDs5TnFb2RW88cQZ
UimX1JR8ZdvN5zijQ88Oct1MlUdSbBdMYn1T0cJP6aBNLJ5fylsCWprNtyVu5dmP
uU0mFqBdX0YwTECrkNyP2SoS6TaXYSzlJhYYrkUqCnVSJzY5n7K/cmC0YB1eyJ9f
S4aAMgHvm+pUjp6iprvkjWcTEMmmVwMp62p7KezGCJMBiRDhndWZ2XQXv7LOz0Ln
D2qLL83rglLULLdWLb9eQa0FSnAkzswRu9Pca/jtRylhEJUbAtI/Pb1Wwsyo
-----END CERTIFICATE-----
